; ModuleID = 'source-C-CXX/27/1988.c'
source_filename = "source-C-CXX/27/1988.c"
target datalayout = "e-m:e-p270:32:32-p271:32:32-p272:64:64-i64:64-f80:128-n8:16:32:64-S128"
target triple = "x86_64-pc-linux-gnu"

@.str = private unnamed_addr constant [4 x i8] c"%d,\00", align 1
@.str.1 = private unnamed_addr constant [3 x i8] c"%d\00", align 1

; Function Attrs: nounwind sspstrong uwtable
define dso_local i32 @main() local_unnamed_addr #0 {
  %1 = alloca [5000 x i8], align 16
  %2 = alloca [1000 x i32], align 16
  %3 = getelementptr inbounds [5000 x i8], [5000 x i8]* %1, i64 0, i64 0
  call void @llvm.lifetime.start.p0i8(i64 5000, i8* nonnull %3) #5
  %4 = bitcast [1000 x i32]* %2 to i8*
  call void @llvm.lifetime.start.p0i8(i64 4000, i8* nonnull %4) #5
  call void @llvm.memset.p0i8.i64(i8* noundef nonnull align 16 dereferenceable(4000) %4, i8 0, i64 4000, i1 false)
  %5 = call i32 (i8*, ...) bitcast (i32 (...)* @gets to i32 (i8*, ...)*)(i8* nonnull %3) #5
  br label %6

6:                                                ; preds = %23, %0
  %7 = phi i64 [ %24, %23 ], [ 0, %0 ]
  %8 = phi i32 [ %29, %23 ], [ 0, %0 ]
  %9 = zext i32 %8 to i64
  %10 = getelementptr inbounds [1000 x i32], [1000 x i32]* %2, i64 0, i64 %9
  br label %11

11:                                               ; preds = %6, %19
  %12 = phi i64 [ %22, %19 ], [ %7, %6 ]
  %13 = getelementptr inbounds [5000 x i8], [5000 x i8]* %1, i64 0, i64 %12
  %14 = load i8, i8* %13, align 1, !tbaa !5
  switch i8 %14, label %19 [
    i8 0, label %15
    i8 32, label %23
  ]

15:                                               ; preds = %11
  %16 = icmp eq i32 %8, 0
  br i1 %16, label %37, label %17

17:                                               ; preds = %15
  %18 = zext i32 %8 to i64
  br label %30

19:                                               ; preds = %11
  %20 = load i32, i32* %10, align 4, !tbaa !8
  %21 = add nsw i32 %20, 1
  store i32 %21, i32* %10, align 4, !tbaa !8
  %22 = add nuw i64 %12, 1
  br label %11, !llvm.loop !10

23:                                               ; preds = %11
  %24 = add nuw i64 %12, 1
  %25 = getelementptr inbounds [5000 x i8], [5000 x i8]* %1, i64 0, i64 %24
  %26 = load i8, i8* %25, align 1, !tbaa !5
  %27 = icmp ne i8 %26, 32
  %28 = zext i1 %27 to i32
  %29 = add nuw nsw i32 %8, %28
  br label %6, !llvm.loop !10

30:                                               ; preds = %17, %30
  %31 = phi i64 [ 0, %17 ], [ %35, %30 ]
  %32 = getelementptr inbounds [1000 x i32], [1000 x i32]* %2, i64 0, i64 %31
  %33 = load i32, i32* %32, align 4, !tbaa !8
  %34 = call i32 (i8*, ...) @printf(i8* nonnull dereferenceable(1) getelementptr inbounds ([4 x i8], [4 x i8]* @.str, i64 0, i64 0), i32 %33)
  %35 = add nuw nsw i64 %31, 1
  %36 = icmp eq i64 %35, %18
  br i1 %36, label %37, label %30, !llvm.loop !12

37:                                               ; preds = %30, %15
  %38 = zext i32 %8 to i64
  %39 = getelementptr inbounds [1000 x i32], [1000 x i32]* %2, i64 0, i64 %38
  %40 = load i32, i32* %39, align 4, !tbaa !8
  %41 = call i32 (i8*, ...) @printf(i8* nonnull dereferenceable(1) getelementptr inbounds ([3 x i8], [3 x i8]* @.str.1, i64 0, i64 0), i32 %40)
  call void @llvm.lifetime.end.p0i8(i64 4000, i8* nonnull %4) #5
  call void @llvm.lifetime.end.p0i8(i64 5000, i8* nonnull %3) #5
  ret i32 0
}

; Function Attrs: argmemonly mustprogress nofree nosync nounwind willreturn
declare void @llvm.lifetime.start.p0i8(i64 immarg, i8* nocapture) #1

; Function Attrs: argmemonly mustprogress nofree nounwind willreturn writeonly
declare void @llvm.memset.p0i8.i64(i8* nocapture writeonly, i8, i64, i1 immarg) #2

declare i32 @gets(...) local_unnamed_addr #3

; Function Attrs: nofree nounwind
declare noundef i32 @printf(i8* nocapture noundef readonly, ...) local_unnamed_addr #4

; Function Attrs: argmemonly mustprogress nofree nosync nounwind willreturn
declare void @llvm.lifetime.end.p0i8(i64 immarg, i8* nocapture) #1


!llvm.module.flags = !{!0, !1, !2, !3}
!llvm.ident = !{!4}

!0 = !{i32 1, !"wchar_size", i32 4}
!1 = !{i32 7, !"PIC Level", i32 2}
!2 = !{i32 7, !"PIE Level", i32 2}
!3 = !{i32 7, !"uwtable", i32 1}
!4 = !{!"clang version 13.0.0"}
!5 = !{!6, !6, i64 0}
!6 = !{!"omnipotent char", !7, i64 0}
!7 = !{!"Simple C/C++ TBAA"}
!8 = !{!9, !9, i64 0}
!9 = !{!"int", !6, i64 0}
!10 = distinct !{!10, !11}
!11 = !{!"llvm.loop.mustprogress"}
!12 = distinct !{!12, !11}
